target datalayout = "e-m:e-p270:32:32-p271:32:32-p272:64:64-i64:64-i128:128-f80:128-n8:16:32:64-S128"
target triple = "x86_64-pc-linux-gnu"

%struct.persist_msg_t = type { ptr, ptr, i16 }
%struct.dbd_list_msg_t = type { ptr, i32 }
%struct.persist_rc_msg_t = type { ptr, i16, i32, i16 }
%struct.dbd_cond_msg_t = type { ptr }

@plugin_type = dso_local constant [28 x i8] c"accounting_storage/slurmdbd\00", align 16
@.str.7 = private unnamed_addr constant [3 x i8] c"%s\00", align 1
@.str.24 = private unnamed_addr constant [11 x i8] c"%s: %s: %s\00", align 1
@.str.56 = private unnamed_addr constant [24 x i8] c"DBD_GET_QOS failure: %m\00", align 1
@__func__.acct_storage_p_get_qos = private unnamed_addr constant [23 x i8] c"acct_storage_p_get_qos\00", align 1
@.str.57 = private unnamed_addr constant [34 x i8] c"response type not DBD_GOT_QOS: %u\00", align 1

; Function Attrs: nounwind uwtable
define dso_local ptr @acct_storage_p_get_qos(ptr noundef %0, i32 noundef %1, ptr noundef %2) #0 {
  %4 = alloca ptr, align 8
  %5 = alloca i32, align 4
  %6 = alloca ptr, align 8
  %7 = alloca %struct.persist_msg_t, align 8
  %8 = alloca %struct.persist_msg_t, align 8
  %9 = alloca %struct.dbd_cond_msg_t, align 8
  %10 = alloca ptr, align 8
  %11 = alloca i32, align 4
  %12 = alloca ptr, align 8
  %13 = alloca ptr, align 8
  store ptr %0, ptr %4, align 8
  store i32 %1, ptr %5, align 4
  store ptr %2, ptr %6, align 8
  call void @llvm.lifetime.start.p0(i64 24, ptr %7) #9
  call void @llvm.memset.p0.i64(ptr align 8 %7, i8 0, i64 24, i1 false)
  call void @llvm.lifetime.start.p0(i64 24, ptr %8) #9
  call void @llvm.memset.p0.i64(ptr align 8 %8, i8 0, i64 24, i1 false)
  call void @llvm.lifetime.start.p0(i64 8, ptr %9) #9
  call void @llvm.lifetime.start.p0(i64 8, ptr %10) #9
  call void @llvm.lifetime.start.p0(i64 4, ptr %11) #9
  call void @llvm.lifetime.start.p0(i64 8, ptr %12) #9
  store ptr null, ptr %12, align 8
  call void @llvm.memset.p0.i64(ptr align 8 %9, i8 0, i64 8, i1 false)
  %14 = load ptr, ptr %6, align 8
  %15 = getelementptr inbounds nuw %struct.dbd_cond_msg_t, ptr %9, i32 0, i32 0
  store ptr %14, ptr %15, align 8
  %16 = getelementptr inbounds nuw %struct.persist_msg_t, ptr %7, i32 0, i32 2
  store i16 1448, ptr %16, align 8
  %17 = load ptr, ptr %4, align 8
  %18 = getelementptr inbounds nuw %struct.persist_msg_t, ptr %7, i32 0, i32 0
  store ptr %17, ptr %18, align 8
  %19 = getelementptr inbounds nuw %struct.persist_msg_t, ptr %7, i32 0, i32 1
  store ptr %9, ptr %19, align 8
  %20 = call i32 @dbd_conn_send_recv(i16 noundef zeroext 11008, ptr noundef %7, ptr noundef %8)
  store i32 %20, ptr %11, align 4
  %21 = load i32, ptr %11, align 4
  %22 = icmp ne i32 %21, 0
  br i1 %22, label %23, label %25

23:                                               ; preds = %3
  %24 = call i32 (ptr, ...) @slurm_error(ptr noundef @.str.56)
  br label %92

25:                                               ; preds = %3
  %26 = getelementptr inbounds nuw %struct.persist_msg_t, ptr %8, i32 0, i32 2
  %27 = load i16, ptr %26, align 8
  %28 = zext i16 %27 to i32
  %29 = icmp eq i32 %28, 1433
  br i1 %29, label %30, label %63

30:                                               ; preds = %25
  call void @llvm.lifetime.start.p0(i64 8, ptr %13) #9
  %31 = getelementptr inbounds nuw %struct.persist_msg_t, ptr %8, i32 0, i32 1
  %32 = load ptr, ptr %31, align 8
  store ptr %32, ptr %13, align 8
  %33 = load ptr, ptr %13, align 8
  %34 = getelementptr inbounds nuw %struct.persist_rc_msg_t, ptr %33, i32 0, i32 2
  %35 = load i32, ptr %34, align 4
  %36 = icmp eq i32 %35, 0
  br i1 %36, label %37, label %52

37:                                               ; preds = %30
  br label %38

38:                                               ; preds = %37
  br label %39

39:                                               ; preds = %38
  %40 = call i32 @slurm_get_log_level()
  %41 = icmp sge i32 %40, 3
  br i1 %41, label %42, label %46

42:                                               ; preds = %39
  %43 = load ptr, ptr %13, align 8
  %44 = getelementptr inbounds nuw %struct.persist_rc_msg_t, ptr %43, i32 0, i32 0
  %45 = load ptr, ptr %44, align 8
  call void (i32, ptr, ...) @slurm_log_var(i32 noundef 3, ptr noundef @.str.24, ptr noundef @plugin_type, ptr noundef @__func__.acct_storage_p_get_qos, ptr noundef %45)
  br label %46

46:                                               ; preds = %42, %39
  br label %47

47:                                               ; preds = %46
  br label %48

48:                                               ; preds = %47
  br label %49

49:                                               ; preds = %48
  br label %50

50:                                               ; preds = %49
  %51 = call ptr @slurm_list_create(ptr noundef null)
  store ptr %51, ptr %12, align 8
  br label %61

52:                                               ; preds = %30
  %53 = load ptr, ptr %13, align 8
  %54 = getelementptr inbounds nuw %struct.persist_rc_msg_t, ptr %53, i32 0, i32 2
  %55 = load i32, ptr %54, align 4
  %56 = call ptr @__errno_location() #10
  store i32 %55, ptr %56, align 4
  %57 = load ptr, ptr %13, align 8
  %58 = getelementptr inbounds nuw %struct.persist_rc_msg_t, ptr %57, i32 0, i32 0
  %59 = load ptr, ptr %58, align 8
  %60 = call i32 (ptr, ...) @slurm_error(ptr noundef @.str.7, ptr noundef %59)
  br label %61

61:                                               ; preds = %52, %50
  %62 = load ptr, ptr %13, align 8
  call void @slurm_persist_free_rc_msg(ptr noundef %62)
  call void @llvm.lifetime.end.p0(i64 8, ptr %13) #9
  br label %91

63:                                               ; preds = %25
  %64 = getelementptr inbounds nuw %struct.persist_msg_t, ptr %8, i32 0, i32 2
  %65 = load i16, ptr %64, align 8
  %66 = zext i16 %65 to i32
  %67 = icmp ne i32 %66, 1449
  br i1 %67, label %68, label %73

68:                                               ; preds = %63
  %69 = getelementptr inbounds nuw %struct.persist_msg_t, ptr %8, i32 0, i32 2
  %70 = load i16, ptr %69, align 8
  %71 = zext i16 %70 to i32
  %72 = call i32 (ptr, ...) @slurm_error(ptr noundef @.str.57, i32 noundef %71)
  br label %90

73:                                               ; preds = %63
  %74 = getelementptr inbounds nuw %struct.persist_msg_t, ptr %8, i32 0, i32 1
  %75 = load ptr, ptr %74, align 8
  store ptr %75, ptr %10, align 8
  %76 = load ptr, ptr %10, align 8
  %77 = getelementptr inbounds nuw %struct.dbd_list_msg_t, ptr %76, i32 0, i32 0
  %78 = load ptr, ptr %77, align 8
  %79 = icmp ne ptr %78, null
  br i1 %79, label %82, label %80

80:                                               ; preds = %73
  %81 = call ptr @slurm_list_create(ptr noundef null)
  store ptr %81, ptr %12, align 8
  br label %86

82:                                               ; preds = %73
  %83 = load ptr, ptr %10, align 8
  %84 = getelementptr inbounds nuw %struct.dbd_list_msg_t, ptr %83, i32 0, i32 0
  %85 = load ptr, ptr %84, align 8
  store ptr %85, ptr %12, align 8
  br label %86

86:                                               ; preds = %82, %80
  %87 = load ptr, ptr %10, align 8
  %88 = getelementptr inbounds nuw %struct.dbd_list_msg_t, ptr %87, i32 0, i32 0
  store ptr null, ptr %88, align 8
  %89 = load ptr, ptr %10, align 8
  call void @slurm_slurmdbd_free_list_msg(ptr noundef %89)
  br label %90

90:                                               ; preds = %86, %68
  br label %91

91:                                               ; preds = %90, %61
  br label %92

92:                                               ; preds = %91, %23
  %93 = load ptr, ptr %12, align 8
  call void @llvm.lifetime.end.p0(i64 8, ptr %12) #9
  call void @llvm.lifetime.end.p0(i64 4, ptr %11) #9
  call void @llvm.lifetime.end.p0(i64 8, ptr %10) #9
  call void @llvm.lifetime.end.p0(i64 8, ptr %9) #9
  call void @llvm.lifetime.end.p0(i64 24, ptr %8) #9
  call void @llvm.lifetime.end.p0(i64 24, ptr %7) #9
  ret ptr %93
}